; Function Attrs: mustprogress uwtable
define dso_local void @_ZNK4Json5Value3getEPKcS2_RKS0_(ptr dead_on_unwind noalias writable sret(%"class.Json::Value") align 8 %0, ptr nocapture noundef nonnull readonly align 8 dereferenceable(40) %1, ptr noundef %2, ptr noundef %3, ptr nocapture noundef nonnull readonly align 8 dereferenceable(40) %4) local_unnamed_addr #10 align 2 personality ptr @__gxx_personality_v0 {
  %6 = tail call noundef ptr @_ZNK4Json5Value4findEPKcS2_(ptr noundef nonnull align 8 dereferenceable(40) %1, ptr noundef %2, ptr noundef %3)
  %.not = icmp eq ptr %6, null
  %7 = select i1 %.not, ptr %4, ptr %6
  %8 = getelementptr inbounds i8, ptr %0, i64 16
  store ptr null, ptr %8, align 8
  invoke void @_ZN4Json5Value10dupPayloadERKS0_(ptr noundef nonnull align 8 dereferenceable(40) %0, ptr noundef nonnull align 8 dereferenceable(40) %7)
          to label %9 unwind label %12

9:                                                ; preds = %5
  %10 = getelementptr inbounds i8, ptr %7, i64 16
  %11 = invoke noundef nonnull align 8 dereferenceable(8) ptr @_ZN4Json5Value8CommentsaSERKS1_(ptr noundef nonnull align 8 dereferenceable(8) %8, ptr noundef nonnull align 8 dereferenceable(8) %10)
          to label %_ZN4Json5ValueC2ERKS0_.exit unwind label %12

12:                                               ; preds = %9, %5
  %13 = landingpad { ptr, i32 }
          cleanup
  tail call void @_ZN4Json5Value8CommentsD2Ev(ptr noundef nonnull align 8 dereferenceable(8) %8) #35
  resume { ptr, i32 } %13

_ZN4Json5ValueC2ERKS0_.exit:                      ; preds = %9
  %14 = getelementptr inbounds i8, ptr %7, i64 24
  %15 = load i64, ptr %14, align 8
  %16 = getelementptr inbounds i8, ptr %0, i64 24
  store i64 %15, ptr %16, align 8
  %17 = getelementptr inbounds i8, ptr %7, i64 32
  %18 = load i64, ptr %17, align 8
  %19 = getelementptr inbounds i8, ptr %0, i64 32
  store i64 %18, ptr %19, align 8
  ret void
}